target datalayout = "e-m:e-p270:32:32-p271:32:32-p272:64:64-i64:64-i128:128-f80:128-n8:16:32:64-S128"
target triple = "x86_64-pc-linux-gnu"

%class.MemRegion = type { ptr, i64 }
%class.ShenandoahMarkingContext = type { %class.ShenandoahMarkBitMap, ptr, ptr, ptr, %struct.ShenandoahSharedFlag, ptr }
%class.ShenandoahMarkBitMap = type { i32, %class.MemRegion, ptr, i64 }
%struct.ShenandoahSharedFlag = type { [64 x i8], i8, [64 x i8] }
%class.GenericTaskQueueSet = type { %class.TaskQueueSetSuperImpl, i32, ptr }
%class.TaskQueueSetSuperImpl = type { %class.TaskQueueSetSuper }
%class.TaskQueueSetSuper = type { ptr }
%class.TaskQueueSuper = type { [128 x i8], i32, [124 x i8], %"class.TaskQueueSuper<131072, MEMFLAGS::mtGC>::Age", [120 x i8] }
%"class.TaskQueueSuper<131072, MEMFLAGS::mtGC>::Age" = type { %union.anon }
%union.anon = type { i64 }
%class.OverflowTaskQueue = type { %class.GenericTaskQueue, %class.Stack }
%class.GenericTaskQueue = type { %class.TaskQueueSuper, ptr, [120 x i8], i32, i32, [120 x i8] }
%class.Stack = type { ptr, %class.StackBase, ptr, ptr }
%class.StackBase = type { i64, i64, i64, i64, i64, i64 }

@_ZTV5StackI18ShenandoahMarkTaskL8MEMFLAGS5EE = linkonce_odr hidden unnamed_addr constant { [4 x ptr] } { [4 x ptr] [ptr null, ptr null, ptr @_ZN5StackI18ShenandoahMarkTaskL8MEMFLAGS5EE5allocEm, ptr @_ZN5StackI18ShenandoahMarkTaskL8MEMFLAGS5EE4freeEPS0_m] }, comdat, align 8

; Function Attrs: mustprogress nounwind uwtable
define linkonce_odr hidden noundef i64 @_Z10align_downImmTnNSt9enable_ifIXcvbsr3std11is_integralIT_EE5valueEiE4typeELi0EES1_S1_T0_(i64 noundef %0, i64 noundef %1) #1 comdat {
  %3 = alloca i64, align 8
  %4 = alloca i64, align 8
  %5 = alloca i64, align 8
  store i64 %0, ptr %3, align 8
  store i64 %1, ptr %4, align 8
  %6 = load i64, ptr %3, align 8
  %7 = load i64, ptr %4, align 8
  %8 = call noundef i64 @_ZL14alignment_maskImTnNSt9enable_ifIXcvbsr3std11is_integralIT_EE5valueEiE4typeELi0EES1_S1_(i64 noundef %7)
  %9 = xor i64 %8, -1
  %10 = and i64 %6, %9
  store i64 %10, ptr %5, align 8
  %11 = load i64, ptr %5, align 8
  ret i64 %11
}

; Function Attrs: mustprogress nounwind uwtable
define linkonce_odr hidden noundef i64 @_Z12checked_castImmET_T0_(i64 noundef %0) #1 comdat {
  %2 = alloca i64, align 8
  %3 = alloca i64, align 8
  store i64 %0, ptr %2, align 8
  %4 = load i64, ptr %2, align 8
  store i64 %4, ptr %3, align 8
  %5 = load i64, ptr %3, align 8
  ret i64 %5
}

; Function Attrs: mustprogress nounwind uwtable
define internal noundef i64 @_ZL14alignment_maskImTnNSt9enable_ifIXcvbsr3std11is_integralIT_EE5valueEiE4typeELi0EES1_S1_(i64 noundef %0) #1 {
  %2 = alloca i64, align 8
  store i64 %0, ptr %2, align 8
  %3 = load i64, ptr %2, align 8
  %4 = sub i64 %3, 1
  ret i64 %4
}

; Function Attrs: mustprogress nounwind uwtable
define linkonce_odr hidden noundef i64 @_Z8align_upImmTnNSt9enable_ifIXcvbsr3std11is_integralIT_EE5valueEiE4typeELi0EES1_S1_T0_(i64 noundef %0, i64 noundef %1) #1 comdat {
  %3 = alloca i64, align 8
  %4 = alloca i64, align 8
  %5 = alloca i64, align 8
  store i64 %0, ptr %3, align 8
  store i64 %1, ptr %4, align 8
  %6 = load i64, ptr %3, align 8
  %7 = load i64, ptr %4, align 8
  %8 = call noundef i64 @_ZL14alignment_maskImTnNSt9enable_ifIXcvbsr3std11is_integralIT_EE5valueEiE4typeELi0EES1_S1_(i64 noundef %7)
  %9 = add i64 %6, %8
  %10 = call noundef i64 @_Z12checked_castImmET_T0_(i64 noundef %9)
  store i64 %10, ptr %5, align 8
  %11 = load i64, ptr %5, align 8
  %12 = load i64, ptr %4, align 8
  %13 = call noundef i64 @_Z10align_downImmTnNSt9enable_ifIXcvbsr3std11is_integralIT_EE5valueEiE4typeELi0EES1_S1_T0_(i64 noundef %11, i64 noundef %12)
  ret i64 %13
}

; Function Attrs: mustprogress nounwind uwtable
define linkonce_odr hidden noundef ptr @_ZNK5StackI18ShenandoahMarkTaskL8MEMFLAGS5EE9link_addrEPS0_(ptr noundef nonnull align 8 dereferenceable(72) %0, ptr noundef %1) #1 comdat align 2 {
  %3 = alloca ptr, align 8
  %4 = alloca ptr, align 8
  store ptr %0, ptr %3, align 8
  store ptr %1, ptr %4, align 8
  %5 = load ptr, ptr %3, align 8
  %6 = load ptr, ptr %4, align 8
  %7 = call noundef i64 @_ZNK5StackI18ShenandoahMarkTaskL8MEMFLAGS5EE11link_offsetEv(ptr noundef nonnull align 8 dereferenceable(72) %5)
  %8 = getelementptr inbounds i8, ptr %6, i64 %7
  ret ptr %8
}

; Function Attrs: mustprogress nounwind uwtable
define linkonce_odr hidden noundef i64 @_ZNK5StackI18ShenandoahMarkTaskL8MEMFLAGS5EE11link_offsetEv(ptr noundef nonnull align 8 dereferenceable(72) %0) #1 comdat align 2 {
  %2 = alloca ptr, align 8
  store ptr %0, ptr %2, align 8
  %3 = load ptr, ptr %2, align 8
  %4 = getelementptr inbounds i8, ptr %3, i64 8
  %5 = getelementptr inbounds %class.StackBase, ptr %4, i32 0, i32 0
  %6 = load i64, ptr %5, align 8
  %7 = mul i64 %6, 8
  %8 = call noundef i64 @_Z8align_upImmTnNSt9enable_ifIXcvbsr3std11is_integralIT_EE5valueEiE4typeELi0EES1_S1_T0_(i64 noundef %7, i64 noundef 8)
  ret i64 %8
}

; Function Attrs: mustprogress nounwind uwtable
define linkonce_odr hidden noundef ptr @_ZNK5StackI18ShenandoahMarkTaskL8MEMFLAGS5EE8get_linkEPS0_(ptr noundef nonnull align 8 dereferenceable(72) %0, ptr noundef %1) #1 comdat align 2 {
  %3 = alloca ptr, align 8
  %4 = alloca ptr, align 8
  store ptr %0, ptr %3, align 8
  store ptr %1, ptr %4, align 8
  %5 = load ptr, ptr %3, align 8
  %6 = load ptr, ptr %4, align 8
  %7 = call noundef ptr @_ZNK5StackI18ShenandoahMarkTaskL8MEMFLAGS5EE9link_addrEPS0_(ptr noundef nonnull align 8 dereferenceable(72) %5, ptr noundef %6)
  %8 = load ptr, ptr %7, align 8
  ret ptr %8
}

; Function Attrs: mustprogress nounwind uwtable
define linkonce_odr hidden noundef i64 @_ZNK5StackI18ShenandoahMarkTaskL8MEMFLAGS5EE13segment_bytesEv(ptr noundef nonnull align 8 dereferenceable(72) %0) #1 comdat align 2 {
  %2 = alloca ptr, align 8
  store ptr %0, ptr %2, align 8
  %3 = load ptr, ptr %2, align 8
  %4 = call noundef i64 @_ZNK5StackI18ShenandoahMarkTaskL8MEMFLAGS5EE11link_offsetEv(ptr noundef nonnull align 8 dereferenceable(72) %3)
  %5 = add i64 %4, 8
  ret i64 %5
}

; Function Attrs: mustprogress nounwind uwtable
define linkonce_odr hidden void @_ZN5StackI18ShenandoahMarkTaskL8MEMFLAGS5EE5resetEb(ptr noundef nonnull align 8 dereferenceable(72) %0, i1 noundef zeroext %1) #1 comdat align 2 {
  %3 = alloca ptr, align 8
  %4 = alloca i8, align 1
  store ptr %0, ptr %3, align 8
  %5 = zext i1 %1 to i8
  store i8 %5, ptr %4, align 1
  %6 = load ptr, ptr %3, align 8
  %7 = getelementptr inbounds i8, ptr %6, i64 8
  %8 = getelementptr inbounds %class.StackBase, ptr %7, i32 0, i32 0
  %9 = load i64, ptr %8, align 8
  %10 = getelementptr inbounds i8, ptr %6, i64 8
  %11 = getelementptr inbounds %class.StackBase, ptr %10, i32 0, i32 3
  store i64 %9, ptr %11, align 8
  %12 = getelementptr inbounds i8, ptr %6, i64 8
  %13 = getelementptr inbounds %class.StackBase, ptr %12, i32 0, i32 4
  store i64 0, ptr %13, align 8
  %14 = getelementptr inbounds %class.Stack, ptr %6, i32 0, i32 2
  store ptr null, ptr %14, align 8
  %15 = load i8, ptr %4, align 1
  %16 = trunc i8 %15 to i1
  br i1 %16, label %17, label %21

17:                                               ; preds = %2
  %18 = getelementptr inbounds i8, ptr %6, i64 8
  %19 = getelementptr inbounds %class.StackBase, ptr %18, i32 0, i32 5
  store i64 0, ptr %19, align 8
  %20 = getelementptr inbounds %class.Stack, ptr %6, i32 0, i32 3
  store ptr null, ptr %20, align 8
  br label %21

21:                                               ; preds = %17, %2
  ret void
}

; Function Attrs: mustprogress nounwind uwtable
define linkonce_odr hidden void @_ZN5StackI18ShenandoahMarkTaskL8MEMFLAGS5EE13free_segmentsEPS0_(ptr noundef nonnull align 8 dereferenceable(72) %0, ptr noundef %1) #1 comdat align 2 {
  %3 = alloca ptr, align 8
  %4 = alloca ptr, align 8
  %5 = alloca i64, align 8
  %6 = alloca ptr, align 8
  store ptr %0, ptr %3, align 8
  store ptr %1, ptr %4, align 8
  %7 = load ptr, ptr %3, align 8
  %8 = call noundef i64 @_ZNK5StackI18ShenandoahMarkTaskL8MEMFLAGS5EE13segment_bytesEv(ptr noundef nonnull align 8 dereferenceable(72) %7)
  store i64 %8, ptr %5, align 8
  br label %9

9:                                                ; preds = %12, %2
  %10 = load ptr, ptr %4, align 8
  %11 = icmp ne ptr %10, null
  br i1 %11, label %12, label %21

12:                                               ; preds = %9
  %13 = load ptr, ptr %4, align 8
  %14 = call noundef ptr @_ZNK5StackI18ShenandoahMarkTaskL8MEMFLAGS5EE8get_linkEPS0_(ptr noundef nonnull align 8 dereferenceable(72) %7, ptr noundef %13)
  store ptr %14, ptr %6, align 8
  %15 = load ptr, ptr %4, align 8
  %16 = load i64, ptr %5, align 8
  %17 = load ptr, ptr %7, align 8
  %18 = getelementptr inbounds ptr, ptr %17, i64 1
  %19 = load ptr, ptr %18, align 8
  call void %19(ptr noundef nonnull align 8 dereferenceable(72) %7, ptr noundef %15, i64 noundef %16)
  %20 = load ptr, ptr %6, align 8
  store ptr %20, ptr %4, align 8
  br label %9, !llvm.loop !12

21:                                               ; preds = %9
  ret void
}

; Function Attrs: mustprogress nounwind uwtable
define linkonce_odr hidden void @_ZN20MallocArrayAllocatorI18ShenandoahMarkTaskE4freeEPS0_(ptr noundef %0) #1 comdat align 2 {
  %2 = alloca ptr, align 8
  store ptr %0, ptr %2, align 8
  %3 = load ptr, ptr %2, align 8
  call void @_Z8FreeHeapPv(ptr noundef %3)
  ret void
}

; Function Attrs: mustprogress nounwind uwtable
define linkonce_odr hidden void @_ZN5StackI18ShenandoahMarkTaskL8MEMFLAGS5EE5clearEb(ptr noundef nonnull align 8 dereferenceable(72) %0, i1 noundef zeroext %1) #1 comdat align 2 {
  %3 = alloca ptr, align 8
  %4 = alloca i8, align 1
  store ptr %0, ptr %3, align 8
  %5 = zext i1 %1 to i8
  store i8 %5, ptr %4, align 1
  %6 = load ptr, ptr %3, align 8
  %7 = getelementptr inbounds %class.Stack, ptr %6, i32 0, i32 2
  %8 = load ptr, ptr %7, align 8
  call void @_ZN5StackI18ShenandoahMarkTaskL8MEMFLAGS5EE13free_segmentsEPS0_(ptr noundef nonnull align 8 dereferenceable(72) %6, ptr noundef %8)
  %9 = load i8, ptr %4, align 1
  %10 = trunc i8 %9 to i1
  br i1 %10, label %11, label %14

11:                                               ; preds = %2
  %12 = getelementptr inbounds %class.Stack, ptr %6, i32 0, i32 3
  %13 = load ptr, ptr %12, align 8
  call void @_ZN5StackI18ShenandoahMarkTaskL8MEMFLAGS5EE13free_segmentsEPS0_(ptr noundef nonnull align 8 dereferenceable(72) %6, ptr noundef %13)
  br label %14

14:                                               ; preds = %11, %2
  %15 = load i8, ptr %4, align 1
  %16 = trunc i8 %15 to i1
  call void @_ZN5StackI18ShenandoahMarkTaskL8MEMFLAGS5EE5resetEb(ptr noundef nonnull align 8 dereferenceable(72) %6, i1 noundef zeroext %16)
  ret void
}

; Function Attrs: mustprogress nounwind uwtable
define linkonce_odr hidden void @_ZN16GenericTaskQueueI18ShenandoahMarkTaskL8MEMFLAGS5ELj131072EED2Ev(ptr noundef nonnull align 8 dereferenceable(640) %0) unnamed_addr #1 comdat align 2 {
  %2 = alloca ptr, align 8
  store ptr %0, ptr %2, align 8
  %3 = load ptr, ptr %2, align 8
  %4 = getelementptr inbounds %class.GenericTaskQueue, ptr %3, i32 0, i32 1
  %5 = load ptr, ptr %4, align 8
  call void @_ZN20MallocArrayAllocatorI18ShenandoahMarkTaskE4freeEPS0_(ptr noundef %5)
  ret void
}

; Function Attrs: mustprogress nounwind uwtable
define linkonce_odr hidden void @_ZN5StackI18ShenandoahMarkTaskL8MEMFLAGS5EED2Ev(ptr noundef nonnull align 8 dereferenceable(72) %0) unnamed_addr #1 comdat align 2 {
  %2 = alloca ptr, align 8
  store ptr %0, ptr %2, align 8
  %3 = load ptr, ptr %2, align 8
  store ptr getelementptr inbounds inrange(-16, 16) ({ [4 x ptr] }, ptr @_ZTV5StackI18ShenandoahMarkTaskL8MEMFLAGS5EE, i32 0, i32 0, i32 2), ptr %3, align 8
  call void @_ZN5StackI18ShenandoahMarkTaskL8MEMFLAGS5EE5clearEb(ptr noundef nonnull align 8 dereferenceable(72) %3, i1 noundef zeroext true)
  ret void
}

; Function Attrs: mustprogress nounwind uwtable
define linkonce_odr hidden void @_ZN19GenericTaskQueueSetI6PaddedI25BufferedOverflowTaskQueueI18ShenandoahMarkTaskL8MEMFLAGS5ELj131072EELm128EELS3_5EED2Ev(ptr noundef nonnull align 8 dereferenceable(24) %0) unnamed_addr #1 comdat align 2 {
  %2 = alloca ptr, align 8
  store ptr %0, ptr %2, align 8
  %3 = load ptr, ptr %2, align 8
  store ptr getelementptr inbounds inrange(-16, 8) ({ [3 x ptr] }, ptr @_ZTV19GenericTaskQueueSetI6PaddedI25BufferedOverflowTaskQueueI18ShenandoahMarkTaskL8MEMFLAGS5ELj131072EELm128EELS3_5EE, i32 0, i32 0, i32 2), ptr %3, align 8
  %4 = getelementptr inbounds %class.GenericTaskQueueSet, ptr %3, i32 0, i32 2
  %5 = load ptr, ptr %4, align 8
  call void @_Z8FreeHeapPv(ptr noundef %5)
  ret void
}

; Function Attrs: mustprogress nounwind uwtable
define linkonce_odr hidden void @_ZN17OverflowTaskQueueI18ShenandoahMarkTaskL8MEMFLAGS5ELj131072EED2Ev(ptr noundef nonnull align 8 dereferenceable(712) %0) unnamed_addr #1 comdat align 2 {
  %2 = alloca ptr, align 8
  store ptr %0, ptr %2, align 8
  %3 = load ptr, ptr %2, align 8
  %4 = getelementptr inbounds %class.OverflowTaskQueue, ptr %3, i32 0, i32 1
  call void @_ZN5StackI18ShenandoahMarkTaskL8MEMFLAGS5EED2Ev(ptr noundef nonnull align 8 dereferenceable(72) %4) #5
  call void @_ZN16GenericTaskQueueI18ShenandoahMarkTaskL8MEMFLAGS5ELj131072EED2Ev(ptr noundef nonnull align 8 dereferenceable(640) %3) #5
  ret void
}

; Function Attrs: mustprogress nounwind uwtable
define linkonce_odr hidden void @_ZN25ParallelClaimableQueueSetI6PaddedI25BufferedOverflowTaskQueueI18ShenandoahMarkTaskL8MEMFLAGS5ELj131072EELm128EELS3_5EED2Ev(ptr noundef nonnull align 8 dereferenceable(156) %0) unnamed_addr #1 comdat align 2 {
  %2 = alloca ptr, align 8
  store ptr %0, ptr %2, align 8
  %3 = load ptr, ptr %2, align 8
  call void @_ZN19GenericTaskQueueSetI6PaddedI25BufferedOverflowTaskQueueI18ShenandoahMarkTaskL8MEMFLAGS5ELj131072EELm128EELS3_5EED2Ev(ptr noundef nonnull align 8 dereferenceable(24) %3) #5
  ret void
}

; Function Attrs: mustprogress nounwind uwtable
define linkonce_odr hidden void @_ZN12CHeapObjBasedlEPv(ptr noundef %0) #1 comdat align 2 {
  %2 = alloca ptr, align 8
  store ptr %0, ptr %2, align 8
  %3 = load ptr, ptr %2, align 8
  call void @_Z8FreeHeapPv(ptr noundef %3)
  ret void
}

; Function Attrs: mustprogress nounwind uwtable
define linkonce_odr hidden void @_ZN25BufferedOverflowTaskQueueI18ShenandoahMarkTaskL8MEMFLAGS5ELj131072EED2Ev(ptr noundef nonnull align 8 dereferenceable(728) %0) unnamed_addr #1 comdat align 2 {
  %2 = alloca ptr, align 8
  store ptr %0, ptr %2, align 8
  %3 = load ptr, ptr %2, align 8
  call void @_ZN17OverflowTaskQueueI18ShenandoahMarkTaskL8MEMFLAGS5ELj131072EED2Ev(ptr noundef nonnull align 8 dereferenceable(712) %3) #5
  ret void
}

; Function Attrs: mustprogress nounwind uwtable
define linkonce_odr hidden void @_ZN27ShenandoahObjToScanQueueSetD2Ev(ptr noundef nonnull align 8 dereferenceable(156) %0) unnamed_addr #1 comdat align 2 {
  %2 = alloca ptr, align 8
  store ptr %0, ptr %2, align 8
  %3 = load ptr, ptr %2, align 8
  call void @_ZN25ParallelClaimableQueueSetI6PaddedI25BufferedOverflowTaskQueueI18ShenandoahMarkTaskL8MEMFLAGS5ELj131072EELm128EELS3_5EED2Ev(ptr noundef nonnull align 8 dereferenceable(156) %3) #5
  ret void
}

; Function Attrs: mustprogress nounwind uwtable
define linkonce_odr hidden void @_ZN8CHeapObjIL8MEMFLAGS5EEdlEPv(ptr noundef %0) #1 comdat align 2 {
  %2 = alloca ptr, align 8
  store ptr %0, ptr %2, align 8
  %3 = load ptr, ptr %2, align 8
  call void @_ZN12CHeapObjBasedlEPv(ptr noundef %3) #5
  ret void
}

; Function Attrs: mustprogress nounwind uwtable
define linkonce_odr hidden void @_ZN6PaddedI25BufferedOverflowTaskQueueI18ShenandoahMarkTaskL8MEMFLAGS5ELj131072EELm128EED2Ev(ptr noundef nonnull align 8 dereferenceable(1624) %0) unnamed_addr #1 comdat align 2 {
  %2 = alloca ptr, align 8
  store ptr %0, ptr %2, align 8
  %3 = load ptr, ptr %2, align 8
  call void @_ZN25BufferedOverflowTaskQueueI18ShenandoahMarkTaskL8MEMFLAGS5ELj131072EED2Ev(ptr noundef nonnull align 8 dereferenceable(728) %3) #5
  ret void
}

; Function Attrs: mustprogress nounwind uwtable
define linkonce_odr hidden noundef ptr @_ZN19GenericTaskQueueSetI6PaddedI25BufferedOverflowTaskQueueI18ShenandoahMarkTaskL8MEMFLAGS5ELj131072EELm128EELS3_5EE5queueEj(ptr noundef nonnull align 8 dereferenceable(24) %0, i32 noundef %1) #1 comdat align 2 {
  %3 = alloca ptr, align 8
  %4 = alloca i32, align 4
  store ptr %0, ptr %3, align 8
  store i32 %1, ptr %4, align 4
  %5 = load ptr, ptr %3, align 8
  %6 = getelementptr inbounds %class.GenericTaskQueueSet, ptr %5, i32 0, i32 2
  %7 = load ptr, ptr %6, align 8
  %8 = load i32, ptr %4, align 4
  %9 = zext i32 %8 to i64
  %10 = getelementptr inbounds ptr, ptr %7, i64 %9
  %11 = load ptr, ptr %10, align 8
  ret ptr %11
}

; Function Attrs: mustprogress nounwind uwtable
define linkonce_odr hidden noundef i32 @_ZNK19GenericTaskQueueSetI6PaddedI25BufferedOverflowTaskQueueI18ShenandoahMarkTaskL8MEMFLAGS5ELj131072EELm128EELS3_5EE4sizeEv(ptr noundef nonnull align 8 dereferenceable(24) %0) #1 comdat align 2 {
  %2 = alloca ptr, align 8
  store ptr %0, ptr %2, align 8
  %3 = load ptr, ptr %2, align 8
  %4 = getelementptr inbounds %class.GenericTaskQueueSet, ptr %3, i32 0, i32 1
  %5 = load i32, ptr %4, align 8
  ret i32 %5
}

; Function Attrs: mustprogress nounwind uwtable
define hidden void @_ZN24ShenandoahMarkingContextD2Ev(ptr noundef nonnull align 8 dereferenceable(208) %0) unnamed_addr #1 align 2 {
  %2 = alloca ptr, align 8
  %3 = alloca i32, align 4
  %4 = alloca ptr, align 8
  store ptr %0, ptr %2, align 8
  %5 = load ptr, ptr %2, align 8
  store i32 0, ptr %3, align 4
  br label %6

6:                                                ; preds = %21, %1
  %7 = load i32, ptr %3, align 4
  %8 = getelementptr inbounds %class.ShenandoahMarkingContext, ptr %5, i32 0, i32 5
  %9 = load ptr, ptr %8, align 8
  %10 = call noundef i32 @_ZNK19GenericTaskQueueSetI6PaddedI25BufferedOverflowTaskQueueI18ShenandoahMarkTaskL8MEMFLAGS5ELj131072EELm128EELS3_5EE4sizeEv(ptr noundef nonnull align 8 dereferenceable(24) %9)
  %11 = icmp ult i32 %7, %10
  br i1 %11, label %12, label %24

12:                                               ; preds = %6
  %13 = getelementptr inbounds %class.ShenandoahMarkingContext, ptr %5, i32 0, i32 5
  %14 = load ptr, ptr %13, align 8
  %15 = load i32, ptr %3, align 4
  %16 = call noundef ptr @_ZN19GenericTaskQueueSetI6PaddedI25BufferedOverflowTaskQueueI18ShenandoahMarkTaskL8MEMFLAGS5ELj131072EELm128EELS3_5EE5queueEj(ptr noundef nonnull align 8 dereferenceable(24) %14, i32 noundef %15)
  store ptr %16, ptr %4, align 8
  %17 = load ptr, ptr %4, align 8
  %18 = icmp eq ptr %17, null
  br i1 %18, label %20, label %19

19:                                               ; preds = %12
  call void @_ZN6PaddedI25BufferedOverflowTaskQueueI18ShenandoahMarkTaskL8MEMFLAGS5ELj131072EELm128EED2Ev(ptr noundef nonnull align 8 dereferenceable(1624) %17) #5
  call void @_ZN8CHeapObjIL8MEMFLAGS5EEdlEPv(ptr noundef %17) #5
  br label %20

20:                                               ; preds = %19, %12
  br label %21

21:                                               ; preds = %20
  %22 = load i32, ptr %3, align 4
  %23 = add i32 %22, 1
  store i32 %23, ptr %3, align 4
  br label %6, !llvm.loop !8

24:                                               ; preds = %6
  %25 = getelementptr inbounds %class.ShenandoahMarkingContext, ptr %5, i32 0, i32 5
  %26 = load ptr, ptr %25, align 8
  %27 = icmp eq ptr %26, null
  br i1 %27, label %29, label %28

28:                                               ; preds = %24
  call void @_ZN27ShenandoahObjToScanQueueSetD2Ev(ptr noundef nonnull align 8 dereferenceable(156) %26) #5
  call void @_ZN8CHeapObjIL8MEMFLAGS5EEdlEPv(ptr noundef %26) #5
  br label %29

29:                                               ; preds = %28, %24
  ret void
}