; Function Attrs: mustprogress nounwind uwtable
define hidden void @_ZN24ShenandoahMarkingContextD2Ev(ptr nocapture noundef nonnull readonly align 8 dereferenceable(208) %0) unnamed_addr #0 align 2 {
  %2 = getelementptr inbounds i8, ptr %0, i64 200
  %3 = load ptr, ptr %2, align 8
  %4 = getelementptr inbounds i8, ptr %3, i64 8
  %5 = load i32, ptr %4, align 8
  %.not = icmp eq i32 %5, 0
  br i1 %.not, label %._crit_edge, label %.lr.ph

.lr.ph:                                           ; preds = %1, %42
  %6 = phi ptr [ %43, %42 ], [ %3, %1 ]
  %indvars.iv = phi i64 [ %indvars.iv.next, %42 ], [ 0, %1 ]
  %7 = getelementptr inbounds i8, ptr %6, i64 16
  %8 = load ptr, ptr %7, align 8
  %9 = getelementptr inbounds ptr, ptr %8, i64 %indvars.iv
  %10 = load ptr, ptr %9, align 8
  %11 = icmp eq ptr %10, null
  br i1 %11, label %42, label %12

12:                                               ; preds = %.lr.ph
  %13 = getelementptr inbounds i8, ptr %10, i64 640
  store ptr getelementptr inbounds inrange(-16, 16) (i8, ptr @_ZTV5StackI18ShenandoahMarkTaskL8MEMFLAGS5EE, i64 16), ptr %13, align 8
  %14 = getelementptr inbounds i8, ptr %10, i64 696
  %15 = load ptr, ptr %14, align 8
  %16 = getelementptr inbounds i8, ptr %10, i64 648
  %17 = load i64, ptr %16, align 8
  %18 = shl i64 %17, 3
  %19 = add i64 %18, 8
  %.not5.i.i.i.i.i.i = icmp eq ptr %15, null
  br i1 %.not5.i.i.i.i.i.i, label %_ZN5StackI18ShenandoahMarkTaskL8MEMFLAGS5EE13free_segmentsEPS0_.exit.i.i.i.i.i, label %.lr.ph.i.i.i.i.i.i

.lr.ph.i.i.i.i.i.i:                               ; preds = %12, %.lr.ph.i.i.i.i.i.i
  %.06.i.i.i.i.i.i = phi ptr [ %23, %.lr.ph.i.i.i.i.i.i ], [ %15, %12 ]
  %20 = load i64, ptr %16, align 8
  %21 = shl i64 %20, 3
  %22 = getelementptr inbounds i8, ptr %.06.i.i.i.i.i.i, i64 %21
  %23 = load ptr, ptr %22, align 8
  %24 = load ptr, ptr %13, align 8
  %25 = getelementptr inbounds i8, ptr %24, i64 8
  %26 = load ptr, ptr %25, align 8
  tail call void %26(ptr noundef nonnull align 8 dereferenceable(72) %13, ptr noundef nonnull %.06.i.i.i.i.i.i, i64 noundef %19) #5
  %.not.i.i.i.i.i.i = icmp eq ptr %23, null
  br i1 %.not.i.i.i.i.i.i, label %_ZN5StackI18ShenandoahMarkTaskL8MEMFLAGS5EE13free_segmentsEPS0_.exit.i.loopexit.i.i.i.i, label %.lr.ph.i.i.i.i.i.i, !llvm.loop !10

_ZN5StackI18ShenandoahMarkTaskL8MEMFLAGS5EE13free_segmentsEPS0_.exit.i.loopexit.i.i.i.i: ; preds = %.lr.ph.i.i.i.i.i.i
  %.pre.i.i.i.i = load i64, ptr %16, align 8
  %.pre1.i.i.i.i = shl i64 %.pre.i.i.i.i, 3
  %.pre2.i.i.i.i = add i64 %.pre1.i.i.i.i, 8
  br label %_ZN5StackI18ShenandoahMarkTaskL8MEMFLAGS5EE13free_segmentsEPS0_.exit.i.i.i.i.i

_ZN5StackI18ShenandoahMarkTaskL8MEMFLAGS5EE13free_segmentsEPS0_.exit.i.i.i.i.i: ; preds = %_ZN5StackI18ShenandoahMarkTaskL8MEMFLAGS5EE13free_segmentsEPS0_.exit.i.loopexit.i.i.i.i, %12
  %.pre-phi3.i.i.i.i = phi i64 [ %.pre2.i.i.i.i, %_ZN5StackI18ShenandoahMarkTaskL8MEMFLAGS5EE13free_segmentsEPS0_.exit.i.loopexit.i.i.i.i ], [ %19, %12 ]
  %27 = phi i64 [ %.pre.i.i.i.i, %_ZN5StackI18ShenandoahMarkTaskL8MEMFLAGS5EE13free_segmentsEPS0_.exit.i.loopexit.i.i.i.i ], [ %17, %12 ]
  %28 = getelementptr inbounds i8, ptr %10, i64 704
  %29 = load ptr, ptr %28, align 8
  %.not5.i2.i.i.i.i.i = icmp eq ptr %29, null
  br i1 %.not5.i2.i.i.i.i.i, label %_ZN6PaddedI25BufferedOverflowTaskQueueI18ShenandoahMarkTaskL8MEMFLAGS5ELj131072EELm128EED2Ev.exit, label %.lr.ph.i3.i.i.i.i.i

.lr.ph.i3.i.i.i.i.i:                              ; preds = %_ZN5StackI18ShenandoahMarkTaskL8MEMFLAGS5EE13free_segmentsEPS0_.exit.i.i.i.i.i, %.lr.ph.i3.i.i.i.i.i
  %.06.i4.i.i.i.i.i = phi ptr [ %33, %.lr.ph.i3.i.i.i.i.i ], [ %29, %_ZN5StackI18ShenandoahMarkTaskL8MEMFLAGS5EE13free_segmentsEPS0_.exit.i.i.i.i.i ]
  %30 = load i64, ptr %16, align 8
  %31 = shl i64 %30, 3
  %32 = getelementptr inbounds i8, ptr %.06.i4.i.i.i.i.i, i64 %31
  %33 = load ptr, ptr %32, align 8
  %34 = load ptr, ptr %13, align 8
  %35 = getelementptr inbounds i8, ptr %34, i64 8
  %36 = load ptr, ptr %35, align 8
  tail call void %36(ptr noundef nonnull align 8 dereferenceable(72) %13, ptr noundef nonnull %.06.i4.i.i.i.i.i, i64 noundef %.pre-phi3.i.i.i.i) #5
  %.not.i5.i.i.i.i.i = icmp eq ptr %33, null
  br i1 %.not.i5.i.i.i.i.i, label %_ZN5StackI18ShenandoahMarkTaskL8MEMFLAGS5EE13free_segmentsEPS0_.exit6.i.i.i.i.i, label %.lr.ph.i3.i.i.i.i.i, !llvm.loop !10

_ZN5StackI18ShenandoahMarkTaskL8MEMFLAGS5EE13free_segmentsEPS0_.exit6.i.i.i.i.i: ; preds = %.lr.ph.i3.i.i.i.i.i
  %37 = load i64, ptr %16, align 8
  br label %_ZN6PaddedI25BufferedOverflowTaskQueueI18ShenandoahMarkTaskL8MEMFLAGS5ELj131072EELm128EED2Ev.exit

_ZN6PaddedI25BufferedOverflowTaskQueueI18ShenandoahMarkTaskL8MEMFLAGS5ELj131072EELm128EED2Ev.exit: ; preds = %_ZN5StackI18ShenandoahMarkTaskL8MEMFLAGS5EE13free_segmentsEPS0_.exit.i.i.i.i.i, %_ZN5StackI18ShenandoahMarkTaskL8MEMFLAGS5EE13free_segmentsEPS0_.exit6.i.i.i.i.i
  %.sink.i.i.i.i.i = phi i64 [ %37, %_ZN5StackI18ShenandoahMarkTaskL8MEMFLAGS5EE13free_segmentsEPS0_.exit6.i.i.i.i.i ], [ %27, %_ZN5StackI18ShenandoahMarkTaskL8MEMFLAGS5EE13free_segmentsEPS0_.exit.i.i.i.i.i ]
  %38 = getelementptr inbounds i8, ptr %10, i64 672
  store i64 %.sink.i.i.i.i.i, ptr %38, align 8
  %39 = getelementptr inbounds i8, ptr %10, i64 680
  tail call void @llvm.memset.p0.i64(ptr noundef nonnull align 8 dereferenceable(32) %39, i8 0, i64 32, i1 false)
  %40 = getelementptr inbounds i8, ptr %10, i64 384
  %41 = load ptr, ptr %40, align 8
  tail call void @_Z8FreeHeapPv(ptr noundef %41) #5
  tail call void @_Z8FreeHeapPv(ptr noundef nonnull %10) #5
  %.pre = load ptr, ptr %2, align 8
  br label %42

42:                                               ; preds = %.lr.ph, %_ZN6PaddedI25BufferedOverflowTaskQueueI18ShenandoahMarkTaskL8MEMFLAGS5ELj131072EELm128EED2Ev.exit
  %43 = phi ptr [ %6, %.lr.ph ], [ %.pre, %_ZN6PaddedI25BufferedOverflowTaskQueueI18ShenandoahMarkTaskL8MEMFLAGS5ELj131072EELm128EED2Ev.exit ]
  %indvars.iv.next = add nuw nsw i64 %indvars.iv, 1
  %44 = getelementptr inbounds i8, ptr %43, i64 8
  %45 = load i32, ptr %44, align 8
  %46 = zext i32 %45 to i64
  %47 = icmp ult i64 %indvars.iv.next, %46
  br i1 %47, label %.lr.ph, label %._crit_edge, !llvm.loop !11

._crit_edge:                                      ; preds = %42, %1
  %.lcssa = phi ptr [ %3, %1 ], [ %43, %42 ]
  store ptr getelementptr inbounds inrange(-16, 8) (i8, ptr @_ZTV19GenericTaskQueueSetI6PaddedI25BufferedOverflowTaskQueueI18ShenandoahMarkTaskL8MEMFLAGS5ELj131072EELm128EELS3_5EE, i64 16), ptr %.lcssa, align 8
  %48 = getelementptr inbounds i8, ptr %.lcssa, i64 16
  %49 = load ptr, ptr %48, align 8
  tail call void @_Z8FreeHeapPv(ptr noundef %49) #5
  tail call void @_Z8FreeHeapPv(ptr noundef nonnull %.lcssa) #5
  ret void
}